(dp0
S'Team Omega'
p1
ccopy_reg
_reconstructor
p2
(chistory
Team
p3
c__builtin__
object
p4
Ntp5
Rp6
(dp7
S'exploits'
p8
(lp9
sS'points'
p10
I0
sS'transfer_history'
p11
I0
sS'name'
p12
g1
sbsS'utdCSG'
p13
g2
(g3
g4
Ntp14
Rp15
(dp16
S'exploits'
p17
(lp18
sS'points'
p19
I0
sS'transfer_history'
p20
I0
sS'name'
p21
g13
sbs.